; Function Attrs: nounwind sspstrong uwtable
define internal range(i64 1, 0) i64 @node_id_for_backtrace_location(ptr readnone captures(none) %0, i64 %1, i64 noundef %2) #0 {
  %4 = tail call i32 @rb_frame_info_p(i64 noundef %2) #11
  %.not = icmp eq i32 %4, 0
  br i1 %.not, label %5, label %7

5:                                                ; preds = %3
  %6 = load i64, ptr @rb_eTypeError, align 8, !tbaa !47
  tail call void (i64, ptr, ...) @rb_raise(i64 noundef %6, ptr noundef nonnull @.str.43) #12
  unreachable

7:                                                ; preds = %3
  %8 = tail call i32 @rb_get_node_id_from_frame_info(i64 noundef %2) #11
  %9 = icmp eq i32 %8, -1
  %10 = sext i32 %8 to i64
  %11 = shl nsw i64 %10, 1
  %12 = or disjoint i64 %11, 1
  %.0 = select i1 %9, i64 4, i64 %12
  ret i64 %.0
}